target datalayout = "e-m:e-p270:32:32-p271:32:32-p272:64:64-i64:64-i128:128-f80:128-n8:16:32:64-S128"
target triple = "x86_64-pc-linux-gnu"

%struct.pollfd = type { i32, i16, i16 }
%struct.curltime = type { i64, i32 }
%struct.Curl_easy = type { i32, i64, i64, ptr, %struct.Curl_llist_node, %struct.Curl_llist_node, i32, i32, %struct.Curl_message, %struct.easy_pollset, %struct.Names, ptr, ptr, ptr, ptr, %struct.SingleRequest, %struct.UserDefined, ptr, ptr, ptr, %struct.Progress, %struct.UrlState, ptr, %struct.PureInfo, %struct.curl_tlssessioninfo }
%struct.Curl_llist_node = type { ptr, ptr, ptr, ptr }
%struct.Curl_message = type { %struct.Curl_llist_node, %struct.CURLMsg }
%struct.CURLMsg = type { i32, ptr, %union.anon }
%union.anon = type { ptr }
%struct.easy_pollset = type { [5 x i32], i32, [5 x i8] }
%struct.Names = type { ptr, i32 }
%struct.SingleRequest = type <{ i64, i64, i64, i64, %struct.curltime, i32, i32, i32, i32, i64, i32, i32, i8, i8, [2 x i8], i32, ptr, ptr, %struct.bufq, i64, i64, ptr, ptr, %union.anon.0, ptr, i8, i32, [3 x i8] }>
%struct.bufq = type { ptr, ptr, ptr, ptr, i64, i64, i64, i32 }
%union.anon.0 = type { ptr }
%struct.UserDefined = type <{ ptr, ptr, ptr, ptr, ptr, ptr, i64, i64, i64, ptr, ptr, i64, ptr, ptr, ptr, ptr, ptr, ptr, ptr, ptr, ptr, ptr, ptr, ptr, ptr, ptr, ptr, ptr, ptr, ptr, ptr, ptr, ptr, ptr, ptr, i64, i64, i64, i64, i64, i64, i64, i64, i64, ptr, ptr, %struct.curl_mimepart, ptr, ptr, ptr, i64, %struct.ssl_config_data, %struct.ssl_config_data, ptr, i16, i8, i8, %struct.ssl_general_config, i32, i32, i32, [4 x i8], ptr, ptr, i64, i32, i8, i8, i8, i8, ptr, ptr, ptr, i32, [4 x i8], [74 x ptr], [8 x ptr], i32, i32, i32, [4 x i8], ptr, i32, [4 x i8], ptr, ptr, ptr, ptr, ptr, i32, i32, i32, i32, i32, i32, i32, i32, i64, ptr, ptr, i64, ptr, i64, ptr, ptr, ptr, ptr, i32, i16, i16, i16, i8, i8, i8, i8, i8, i8, i8, i8, i64, [6 x i8] }>
%struct.curl_mimepart = type { ptr, ptr, i32, i32, ptr, ptr, ptr, ptr, ptr, ptr, ptr, ptr, ptr, ptr, ptr, i64, %struct.mime_state, ptr, %struct.mime_encoder_state, i64 }
%struct.mime_state = type { i32, ptr, i64 }
%struct.mime_encoder_state = type { i64, i64, i64, [256 x i8] }
%struct.ssl_config_data = type { %struct.ssl_primary_config, i64, ptr, ptr, ptr, ptr, ptr, ptr, ptr, i16 }
%struct.ssl_primary_config = type { ptr, ptr, ptr, ptr, ptr, ptr, ptr, ptr, ptr, ptr, ptr, ptr, ptr, ptr, i8, i32, i8, i8 }
%struct.ssl_general_config = type { i32 }
%struct.Progress = type { i64, %struct.pgrs_dir, %struct.pgrs_dir, i64, i64, i32, i32, i64, i64, i64, i64, i64, i64, i64, i64, i64, %struct.curltime, %struct.curltime, %struct.curltime, %struct.curltime, %struct.curltime, [6 x i64], [6 x %struct.curltime], i32, i8 }
%struct.pgrs_dir = type { i64, i64, i64, %struct.pgrs_measure }
%struct.pgrs_measure = type { %struct.curltime, i64 }
%struct.UrlState = type { %struct.curltime, i64, i64, %struct.dynbuf, ptr, i64, ptr, i32, i32, i32, ptr, i32, i64, i32, ptr, %struct.digestdata, %struct.digestdata, %struct.auth, %struct.auth, %struct.Curl_async, ptr, i8, %struct.curltime, %struct.Curl_tree, %struct.Curl_llist, [15 x %struct.time_node], ptr, ptr, i64, i64, i64, i64, [32 x i8], i64, ptr, ptr, ptr, %struct.urlpieces, ptr, ptr, ptr, ptr, ptr, i64, %struct.dynbuf, %struct.Curl_llist, [2 x %struct.curl_header], ptr, i32, ptr, ptr, %struct.store_netrc, %struct.dynamically_allocated_data, i8, i8, i8, i8, i32 }
%struct.digestdata = type { ptr, ptr, ptr, ptr, ptr, ptr, i32, i8, i8 }
%struct.auth = type { i64, i64, i64, i8 }
%struct.Curl_async = type { ptr, ptr, ptr, ptr, i32, i32, i8 }
%struct.Curl_tree = type { ptr, ptr, ptr, ptr, %struct.curltime, ptr }
%struct.time_node = type { %struct.Curl_llist_node, %struct.curltime, i32 }
%struct.urlpieces = type { ptr, ptr, ptr, ptr, ptr, ptr, ptr, ptr }
%struct.dynbuf = type { ptr, i64, i64, i64 }
%struct.Curl_llist = type { ptr, ptr, ptr, i64 }
%struct.curl_header = type { ptr, ptr, i64, i64, i32, ptr }
%struct.store_netrc = type { %struct.dynbuf, ptr, i8 }
%struct.dynamically_allocated_data = type { ptr, ptr, ptr, ptr, ptr, ptr, ptr, ptr, ptr, ptr, ptr, ptr, ptr, ptr }
%struct.PureInfo = type { i32, i32, i32, i64, i64, i64, i64, i64, i64, i64, ptr, ptr, i64, i32, %struct.ip_quadruple, i32, ptr, i32, %struct.curl_certinfo, i32, i8 }
%struct.ip_quadruple = type { [46 x i8], [46 x i8], i32, i32 }
%struct.curl_certinfo = type { i32, ptr }
%struct.curl_tlssessioninfo = type { i32, ptr }
%struct.connectdata = type { %struct.Curl_llist_node, ptr, ptr, i64, ptr, i64, ptr, ptr, %struct.hostname, ptr, ptr, %struct.hostname, %struct.proxy_info, %struct.proxy_info, %struct.ip_quadruple, %struct.ip_quadruple, ptr, ptr, ptr, ptr, ptr, %struct.curltime, %struct.curltime, %struct.curltime, [2 x i32], [2 x ptr], [2 x ptr], [2 x ptr], %struct.anon, %struct.easy_pollset, %struct.ssl_primary_config, %struct.ssl_primary_config, %struct.ConnectBits, ptr, ptr, %struct.curltime, i32, i32, %struct.Curl_llist, i32, i32, %struct.ntlmdata, %struct.ntlmdata, %union.anon.1, ptr, ptr, i16, i32, i32, i32, i32, i16, i16, i8, i8, i8, i8, i8, i8, i8 }
%struct.hostname = type { ptr, ptr, ptr, ptr }
%struct.proxy_info = type { %struct.hostname, i32, i8, ptr, ptr }
%struct.anon = type { [2 x %struct.curltime], i32 }
%struct.ConnectBits = type { i64 }
%struct.ntlmdata = type { i32, [8 x i8], i32, ptr }
%union.anon.1 = type { %struct.ftp_conn }
%struct.ftp_conn = type { %struct.pingpong, ptr, ptr, ptr, ptr, ptr, ptr, ptr, i8, i64, ptr, i64, i32, i32, i32, i32, i32, i16, i8, i8, i8, i8, i8 }
%struct.pingpong = type { i64, i8, ptr, i64, i64, %struct.curltime, i64, %struct.dynbuf, %struct.dynbuf, i64, i64, ptr, ptr }
%struct.TELNET = type { i32, i32, [256 x i32], [256 x i32], [256 x i32], [256 x i32], [256 x i32], [256 x i32], [256 x i32], ptr, ptr, i16, i16, i32, ptr, %struct.dynbuf, [512 x i8], ptr, ptr }

@.str.105 = private unnamed_addr constant [2 x i8] c"\FF\00", align 1

; Function Attrs: nounwind uwtable
define internal i32 @send_telnet_data(ptr noundef %0, ptr noundef %1, i64 noundef %2) #0 {
  %4 = alloca i32, align 4
  %5 = alloca ptr, align 8
  %6 = alloca ptr, align 8
  %7 = alloca i64, align 8
  %8 = alloca i64, align 8
  %9 = alloca i64, align 8
  %10 = alloca ptr, align 8
  %11 = alloca i32, align 4
  %12 = alloca i64, align 8
  %13 = alloca i64, align 8
  %14 = alloca ptr, align 8
  %15 = alloca ptr, align 8
  %16 = alloca i32, align 4
  %17 = alloca [1 x %struct.pollfd], align 4
  store ptr %0, ptr %5, align 8, !tbaa !3
  store ptr %1, ptr %6, align 8, !tbaa !121
  store i64 %2, ptr %7, align 8, !tbaa !81
  call void @llvm.lifetime.start.p0(i64 8, ptr %8) #9
  call void @llvm.lifetime.start.p0(i64 8, ptr %9) #9
  call void @llvm.lifetime.start.p0(i64 8, ptr %10) #9
  call void @llvm.lifetime.start.p0(i64 4, ptr %11) #9
  store i32 0, ptr %11, align 4, !tbaa !80
  call void @llvm.lifetime.start.p0(i64 8, ptr %12) #9
  call void @llvm.lifetime.start.p0(i64 8, ptr %13) #9
  store i64 0, ptr %13, align 8, !tbaa !81
  call void @llvm.lifetime.start.p0(i64 8, ptr %14) #9
  %18 = load ptr, ptr %5, align 8, !tbaa !3
  %19 = getelementptr inbounds nuw %struct.Curl_easy, ptr %18, i32 0, i32 3
  %20 = load ptr, ptr %19, align 8, !tbaa !10
  store ptr %20, ptr %14, align 8, !tbaa !79
  call void @llvm.lifetime.start.p0(i64 8, ptr %15) #9
  %21 = load ptr, ptr %5, align 8, !tbaa !3
  %22 = getelementptr inbounds nuw %struct.Curl_easy, ptr %21, i32 0, i32 15
  %23 = getelementptr inbounds nuw %struct.SingleRequest, ptr %22, i32 0, i32 23
  %24 = load ptr, ptr %23, align 8, !tbaa !84
  store ptr %24, ptr %15, align 8, !tbaa !85
  br label %25

25:                                               ; preds = %3
  br label %26

26:                                               ; preds = %25
  br label %27

27:                                               ; preds = %26
  br label %28

28:                                               ; preds = %27
  br label %29

29:                                               ; preds = %28
  br label %30

30:                                               ; preds = %29
  %31 = load i64, ptr %7, align 8, !tbaa !81
  %32 = icmp slt i64 %31, 0
  br i1 %32, label %33, label %34

33:                                               ; preds = %30
  store i32 100, ptr %4, align 4
  store i32 1, ptr %16, align 4
  br label %123

34:                                               ; preds = %30
  %35 = load ptr, ptr %6, align 8, !tbaa !121
  %36 = load i64, ptr %7, align 8, !tbaa !81
  %37 = call ptr @memchr(ptr noundef %35, i32 noundef 255, i64 noundef %36) #10
  %38 = icmp ne ptr %37, null
  br i1 %38, label %39, label %83

39:                                               ; preds = %34
  %40 = load ptr, ptr %15, align 8, !tbaa !85
  %41 = getelementptr inbounds nuw %struct.TELNET, ptr %40, i32 0, i32 15
  call void @Curl_dyn_reset(ptr noundef %41)
  store i64 0, ptr %8, align 8, !tbaa !81
  br label %42

42:                                               ; preds = %73, %39
  %43 = load i64, ptr %8, align 8, !tbaa !81
  %44 = load i64, ptr %7, align 8, !tbaa !81
  %45 = icmp ult i64 %43, %44
  br i1 %45, label %46, label %50

46:                                               ; preds = %42
  %47 = load i32, ptr %11, align 4, !tbaa !80
  %48 = icmp ne i32 %47, 0
  %49 = xor i1 %48, true
  br label %50

50:                                               ; preds = %46, %42
  %51 = phi i1 [ false, %42 ], [ %49, %46 ]
  br i1 %51, label %52, label %76

52:                                               ; preds = %50
  %53 = load ptr, ptr %15, align 8, !tbaa !85
  %54 = getelementptr inbounds nuw %struct.TELNET, ptr %53, i32 0, i32 15
  %55 = load ptr, ptr %6, align 8, !tbaa !121
  %56 = load i64, ptr %8, align 8, !tbaa !81
  %57 = getelementptr inbounds nuw i8, ptr %55, i64 %56
  %58 = call i32 @Curl_dyn_addn(ptr noundef %54, ptr noundef %57, i64 noundef 1)
  store i32 %58, ptr %11, align 4, !tbaa !80
  %59 = load i32, ptr %11, align 4, !tbaa !80
  %60 = icmp ne i32 %59, 0
  br i1 %60, label %72, label %61

61:                                               ; preds = %52
  %62 = load ptr, ptr %6, align 8, !tbaa !121
  %63 = load i64, ptr %8, align 8, !tbaa !81
  %64 = getelementptr inbounds nuw i8, ptr %62, i64 %63
  %65 = load i8, ptr %64, align 1, !tbaa !84
  %66 = zext i8 %65 to i32
  %67 = icmp eq i32 %66, 255
  br i1 %67, label %68, label %72

68:                                               ; preds = %61
  %69 = load ptr, ptr %15, align 8, !tbaa !85
  %70 = getelementptr inbounds nuw %struct.TELNET, ptr %69, i32 0, i32 15
  %71 = call i32 @Curl_dyn_addn(ptr noundef %70, ptr noundef @.str.105, i64 noundef 1)
  store i32 %71, ptr %11, align 4, !tbaa !80
  br label %72

72:                                               ; preds = %68, %61, %52
  br label %73

73:                                               ; preds = %72
  %74 = load i64, ptr %8, align 8, !tbaa !81
  %75 = add i64 %74, 1
  store i64 %75, ptr %8, align 8, !tbaa !81
  br label %42, !llvm.loop !131

76:                                               ; preds = %50
  %77 = load ptr, ptr %15, align 8, !tbaa !85
  %78 = getelementptr inbounds nuw %struct.TELNET, ptr %77, i32 0, i32 15
  %79 = call i64 @Curl_dyn_len(ptr noundef %78)
  store i64 %79, ptr %9, align 8, !tbaa !81
  %80 = load ptr, ptr %15, align 8, !tbaa !85
  %81 = getelementptr inbounds nuw %struct.TELNET, ptr %80, i32 0, i32 15
  %82 = call ptr @Curl_dyn_uptr(ptr noundef %81)
  store ptr %82, ptr %10, align 8, !tbaa !121
  br label %86

83:                                               ; preds = %34
  %84 = load i64, ptr %7, align 8, !tbaa !81
  store i64 %84, ptr %9, align 8, !tbaa !81
  %85 = load ptr, ptr %6, align 8, !tbaa !121
  store ptr %85, ptr %10, align 8, !tbaa !121
  br label %86

86:                                               ; preds = %83, %76
  br label %87

87:                                               ; preds = %120, %86
  %88 = load i32, ptr %11, align 4, !tbaa !80
  %89 = icmp ne i32 %88, 0
  br i1 %89, label %94, label %90

90:                                               ; preds = %87
  %91 = load i64, ptr %13, align 8, !tbaa !81
  %92 = load i64, ptr %9, align 8, !tbaa !81
  %93 = icmp ult i64 %91, %92
  br label %94

94:                                               ; preds = %90, %87
  %95 = phi i1 [ false, %87 ], [ %93, %90 ]
  br i1 %95, label %96, label %121

96:                                               ; preds = %94
  call void @llvm.lifetime.start.p0(i64 8, ptr %17) #9
  %97 = load ptr, ptr %14, align 8, !tbaa !79
  %98 = getelementptr inbounds nuw %struct.connectdata, ptr %97, i32 0, i32 24
  %99 = getelementptr inbounds [2 x i32], ptr %98, i64 0, i64 0
  %100 = load i32, ptr %99, align 8, !tbaa !80
  %101 = getelementptr inbounds [1 x %struct.pollfd], ptr %17, i64 0, i64 0
  %102 = getelementptr inbounds nuw %struct.pollfd, ptr %101, i32 0, i32 0
  store i32 %100, ptr %102, align 4, !tbaa !87
  %103 = getelementptr inbounds [1 x %struct.pollfd], ptr %17, i64 0, i64 0
  %104 = getelementptr inbounds nuw %struct.pollfd, ptr %103, i32 0, i32 1
  store i16 4, ptr %104, align 4, !tbaa !89
  %105 = getelementptr inbounds [1 x %struct.pollfd], ptr %17, i64 0, i64 0
  %106 = call i32 @Curl_poll(ptr noundef %105, i32 noundef 1, i64 noundef -1)
  switch i32 %106, label %108 [
    i32 -1, label %107
    i32 0, label %107
  ]

107:                                              ; preds = %96, %96
  store i32 55, ptr %11, align 4, !tbaa !80
  br label %120

108:                                              ; preds = %96
  store i64 0, ptr %12, align 8, !tbaa !81
  %109 = load ptr, ptr %5, align 8, !tbaa !3
  %110 = load ptr, ptr %10, align 8, !tbaa !121
  %111 = load i64, ptr %13, align 8, !tbaa !81
  %112 = getelementptr inbounds nuw i8, ptr %110, i64 %111
  %113 = load i64, ptr %9, align 8, !tbaa !81
  %114 = load i64, ptr %13, align 8, !tbaa !81
  %115 = sub i64 %113, %114
  %116 = call i32 @Curl_xfer_send(ptr noundef %109, ptr noundef %112, i64 noundef %115, i1 noundef zeroext false, ptr noundef %12)
  store i32 %116, ptr %11, align 4, !tbaa !80
  %117 = load i64, ptr %12, align 8, !tbaa !81
  %118 = load i64, ptr %13, align 8, !tbaa !81
  %119 = add i64 %118, %117
  store i64 %119, ptr %13, align 8, !tbaa !81
  br label %120

120:                                              ; preds = %108, %107
  call void @llvm.lifetime.end.p0(i64 8, ptr %17) #9
  br label %87, !llvm.loop !132

121:                                              ; preds = %94
  %122 = load i32, ptr %11, align 4, !tbaa !80
  store i32 %122, ptr %4, align 4
  store i32 1, ptr %16, align 4
  br label %123

123:                                              ; preds = %121, %33
  call void @llvm.lifetime.end.p0(i64 8, ptr %15) #9
  call void @llvm.lifetime.end.p0(i64 8, ptr %14) #9
  call void @llvm.lifetime.end.p0(i64 8, ptr %13) #9
  call void @llvm.lifetime.end.p0(i64 8, ptr %12) #9
  call void @llvm.lifetime.end.p0(i64 4, ptr %11) #9
  call void @llvm.lifetime.end.p0(i64 8, ptr %10) #9
  call void @llvm.lifetime.end.p0(i64 8, ptr %9) #9
  call void @llvm.lifetime.end.p0(i64 8, ptr %8) #9
  %124 = load i32, ptr %4, align 4
  ret i32 %124
}