; Function Attrs: nounwind uwtable
define internal fastcc i32 @send_telnet_data(ptr noundef %0, ptr noundef %1, i64 noundef range(i64 1, -9223372036854775808) %2) unnamed_addr #0 {
  %4 = alloca i64, align 8
  %5 = alloca [1 x %struct.pollfd], align 4
  call void @llvm.lifetime.start.p0(i64 8, ptr nonnull %4) #9
  %6 = getelementptr inbounds nuw i8, ptr %0, i64 24
  %7 = load ptr, ptr %6, align 8, !tbaa !3
  %8 = tail call ptr @memchr(ptr noundef nonnull dereferenceable(1) %1, i32 noundef 255, i64 noundef %2) #10
  %.not = icmp eq ptr %8, null
  br i1 %.not, label %27, label %9

9:                                                ; preds = %3
  %10 = getelementptr inbounds nuw i8, ptr %0, i64 440
  %11 = load ptr, ptr %10, align 8, !tbaa !79
  %12 = getelementptr inbounds nuw i8, ptr %11, i64 7208
  tail call void @Curl_dyn_reset(ptr noundef nonnull %12) #9
  br label %13

13:                                               ; preds = %9, %21
  %.03244 = phi i64 [ 0, %9 ], [ %22, %21 ]
  %14 = getelementptr inbounds nuw i8, ptr %1, i64 %.03244
  %15 = tail call i32 @Curl_dyn_addn(ptr noundef nonnull %12, ptr noundef nonnull %14, i64 noundef 1) #9
  %.not43 = icmp eq i32 %15, 0
  br i1 %.not43, label %16, label %.thread

16:                                               ; preds = %13
  %17 = load i8, ptr %14, align 1, !tbaa !79
  %18 = icmp eq i8 %17, -1
  br i1 %18, label %19, label %21

19:                                               ; preds = %16
  %20 = tail call i32 @Curl_dyn_addn(ptr noundef nonnull %12, ptr noundef nonnull @.str.105, i64 noundef 1) #9
  br label %21

21:                                               ; preds = %16, %19
  %.135 = phi i32 [ %20, %19 ], [ 0, %16 ]
  %22 = add nuw nsw i64 %.03244, 1
  %23 = icmp samesign ult i64 %22, %2
  %.not41 = icmp eq i32 %.135, 0
  %24 = select i1 %23, i1 %.not41, i1 false
  br i1 %24, label %13, label %.thread, !llvm.loop !122

.thread:                                          ; preds = %13, %21
  %.13549 = phi i32 [ %.135, %21 ], [ %15, %13 ]
  %25 = tail call i64 @Curl_dyn_len(ptr noundef nonnull %12) #9
  %26 = tail call ptr @Curl_dyn_uptr(ptr noundef nonnull %12) #9
  br label %27

27:                                               ; preds = %3, %.thread
  %.037 = phi i64 [ %25, %.thread ], [ %2, %3 ]
  %.036 = phi ptr [ %26, %.thread ], [ %1, %3 ]
  %.2 = phi i32 [ %.13549, %.thread ], [ 0, %3 ]
  %.not4245 = icmp eq i32 %.2, 0
  %28 = icmp ne i64 %.037, 0
  %29 = select i1 %.not4245, i1 %28, i1 false
  br i1 %29, label %.lr.ph, label %._crit_edge

.lr.ph:                                           ; preds = %27
  %30 = getelementptr inbounds nuw i8, ptr %7, i64 568
  %31 = getelementptr inbounds nuw i8, ptr %5, i64 4
  br label %32

32:                                               ; preds = %.lr.ph, %35
  %.03346 = phi i64 [ 0, %.lr.ph ], [ %40, %35 ]
  call void @llvm.lifetime.start.p0(i64 8, ptr nonnull %5) #9
  %33 = load i32, ptr %30, align 8, !tbaa !75
  store i32 %33, ptr %5, align 4, !tbaa !105
  store i16 4, ptr %31, align 4, !tbaa !107
  %34 = call i32 @Curl_poll(ptr noundef nonnull %5, i32 noundef 1, i64 noundef -1) #9
  switch i32 %34, label %35 [
    i32 -1, label %.thread50
    i32 0, label %.thread50
  ]

.thread50:                                        ; preds = %32, %32
  call void @llvm.lifetime.end.p0(i64 8, ptr nonnull %5) #9
  br label %._crit_edge

35:                                               ; preds = %32
  store i64 0, ptr %4, align 8, !tbaa !111
  %36 = getelementptr inbounds nuw i8, ptr %.036, i64 %.03346
  %37 = sub i64 %.037, %.03346
  %38 = call i32 @Curl_xfer_send(ptr noundef %0, ptr noundef %36, i64 noundef %37, i1 noundef zeroext false, ptr noundef nonnull %4) #9
  %39 = load i64, ptr %4, align 8, !tbaa !111
  %40 = add i64 %39, %.03346
  call void @llvm.lifetime.end.p0(i64 8, ptr nonnull %5) #9
  %.not42 = icmp eq i32 %38, 0
  %41 = icmp ult i64 %40, %.037
  %42 = select i1 %.not42, i1 %41, i1 false
  br i1 %42, label %32, label %._crit_edge, !llvm.loop !123

._crit_edge:                                      ; preds = %35, %.thread50, %27
  %.3.lcssa = phi i32 [ %.2, %27 ], [ 55, %.thread50 ], [ %38, %35 ]
  call void @llvm.lifetime.end.p0(i64 8, ptr nonnull %4) #9
  ret i32 %.3.lcssa
}